; Function Attrs: null_pointer_is_valid sspstrong uwtable
define ptr @get_nonascii_unichar2_string(ptr noundef %0, ptr noundef readonly captures(none) %1, i32 noundef %2, ptr noundef readonly captures(none) %3) local_unnamed_addr #0 {
  %5 = add i32 %2, 1
  %6 = sext i32 %5 to i64
  %7 = tail call noalias ptr @wmem_strbuf_new_sized(ptr noundef %0, i64 noundef %6)
  %8 = icmp sgt i32 %2, 0
  br i1 %8, label %.lr.ph, label %._crit_edge

.lr.ph:                                           ; preds = %4, %.lr.ph
  %.011 = phi ptr [ %14, %.lr.ph ], [ %1, %4 ]
  %.0910 = phi i32 [ %15, %.lr.ph ], [ %2, %4 ]
  %9 = load i8, ptr %.011, align 1
  %10 = zext i8 %9 to i64
  %11 = getelementptr i16, ptr %3, i64 %10
  %12 = load i16, ptr %11, align 2
  %13 = zext i16 %12 to i32
  tail call void @wmem_strbuf_append_unichar(ptr noundef %7, i32 noundef %13)
  %14 = getelementptr i8, ptr %.011, i64 1
  %15 = add nsw i32 %.0910, -1
  %16 = icmp samesign ugt i32 %.0910, 1
  br i1 %16, label %.lr.ph, label %._crit_edge, !llvm.loop !18

._crit_edge:                                      ; preds = %.lr.ph, %4
  %17 = tail call ptr @wmem_strbuf_finalize(ptr noundef %7)
  ret ptr %17
}